target datalayout = "e-m:e-p270:32:32-p271:32:32-p272:64:64-i64:64-i128:128-f80:128-n8:16:32:64-S128"
target triple = "x86_64-pc-linux-gnu"

%struct.Vec_Int_t_ = type { i32, i32, ptr }
%struct.Vec_Str_t_ = type { i32, i32, ptr }

; Function Attrs: inlinehint nounwind uwtable
define internal void @Vec_StrPush(ptr noundef %0, i8 noundef signext %1) #2 {
  %3 = alloca ptr, align 8
  %4 = alloca i8, align 1
  store ptr %0, ptr %3, align 8, !tbaa !14
  store i8 %1, ptr %4, align 1, !tbaa !20
  %5 = load ptr, ptr %3, align 8, !tbaa !14
  %6 = getelementptr inbounds nuw %struct.Vec_Str_t_, ptr %5, i32 0, i32 1
  %7 = load i32, ptr %6, align 4, !tbaa !27
  %8 = load ptr, ptr %3, align 8, !tbaa !14
  %9 = getelementptr inbounds nuw %struct.Vec_Str_t_, ptr %8, i32 0, i32 0
  %10 = load i32, ptr %9, align 8, !tbaa !24
  %11 = icmp eq i32 %7, %10
  br i1 %11, label %12, label %26

12:                                               ; preds = %2
  %13 = load ptr, ptr %3, align 8, !tbaa !14
  %14 = getelementptr inbounds nuw %struct.Vec_Str_t_, ptr %13, i32 0, i32 0
  %15 = load i32, ptr %14, align 8, !tbaa !24
  %16 = icmp slt i32 %15, 16
  br i1 %16, label %17, label %19

17:                                               ; preds = %12
  %18 = load ptr, ptr %3, align 8, !tbaa !14
  call void @Vec_StrGrow(ptr noundef %18, i32 noundef 16)
  br label %25

19:                                               ; preds = %12
  %20 = load ptr, ptr %3, align 8, !tbaa !14
  %21 = load ptr, ptr %3, align 8, !tbaa !14
  %22 = getelementptr inbounds nuw %struct.Vec_Str_t_, ptr %21, i32 0, i32 0
  %23 = load i32, ptr %22, align 8, !tbaa !24
  %24 = mul nsw i32 2, %23
  call void @Vec_StrGrow(ptr noundef %20, i32 noundef %24)
  br label %25

25:                                               ; preds = %19, %17
  br label %26

26:                                               ; preds = %25, %2
  %27 = load i8, ptr %4, align 1, !tbaa !20
  %28 = load ptr, ptr %3, align 8, !tbaa !14
  %29 = getelementptr inbounds nuw %struct.Vec_Str_t_, ptr %28, i32 0, i32 2
  %30 = load ptr, ptr %29, align 8, !tbaa !26
  %31 = load ptr, ptr %3, align 8, !tbaa !14
  %32 = getelementptr inbounds nuw %struct.Vec_Str_t_, ptr %31, i32 0, i32 1
  %33 = load i32, ptr %32, align 4, !tbaa !27
  %34 = add nsw i32 %33, 1
  store i32 %34, ptr %32, align 4, !tbaa !27
  %35 = sext i32 %33 to i64
  %36 = getelementptr inbounds i8, ptr %30, i64 %35
  store i8 %27, ptr %36, align 1, !tbaa !20
  ret void
}

; Function Attrs: inlinehint nounwind uwtable
define internal void @Vec_StrFill(ptr noundef %0, i32 noundef %1, i8 noundef signext %2) #2 {
  %4 = alloca ptr, align 8
  %5 = alloca i32, align 4
  %6 = alloca i8, align 1
  %7 = alloca i32, align 4
  store ptr %0, ptr %4, align 8, !tbaa !14
  store i32 %1, ptr %5, align 4, !tbaa !16
  store i8 %2, ptr %6, align 1, !tbaa !20
  call void @llvm.lifetime.start.p0(i64 4, ptr %7) #10
  %8 = load ptr, ptr %4, align 8, !tbaa !14
  %9 = load i32, ptr %5, align 4, !tbaa !16
  call void @Vec_StrGrow(ptr noundef %8, i32 noundef %9)
  %10 = load i32, ptr %5, align 4, !tbaa !16
  %11 = load ptr, ptr %4, align 8, !tbaa !14
  %12 = getelementptr inbounds nuw %struct.Vec_Str_t_, ptr %11, i32 0, i32 1
  store i32 %10, ptr %12, align 4, !tbaa !27
  store i32 0, ptr %7, align 4, !tbaa !16
  br label %13

13:                                               ; preds = %27, %3
  %14 = load i32, ptr %7, align 4, !tbaa !16
  %15 = load ptr, ptr %4, align 8, !tbaa !14
  %16 = getelementptr inbounds nuw %struct.Vec_Str_t_, ptr %15, i32 0, i32 1
  %17 = load i32, ptr %16, align 4, !tbaa !27
  %18 = icmp slt i32 %14, %17
  br i1 %18, label %19, label %30

19:                                               ; preds = %13
  %20 = load i8, ptr %6, align 1, !tbaa !20
  %21 = load ptr, ptr %4, align 8, !tbaa !14
  %22 = getelementptr inbounds nuw %struct.Vec_Str_t_, ptr %21, i32 0, i32 2
  %23 = load ptr, ptr %22, align 8, !tbaa !26
  %24 = load i32, ptr %7, align 4, !tbaa !16
  %25 = sext i32 %24 to i64
  %26 = getelementptr inbounds i8, ptr %23, i64 %25
  store i8 %20, ptr %26, align 1, !tbaa !20
  br label %27

27:                                               ; preds = %19
  %28 = load i32, ptr %7, align 4, !tbaa !16
  %29 = add nsw i32 %28, 1
  store i32 %29, ptr %7, align 4, !tbaa !16
  br label %13, !llvm.loop !28

30:                                               ; preds = %13
  call void @llvm.lifetime.end.p0(i64 4, ptr %7) #10
  ret void
}

; Function Attrs: inlinehint nounwind uwtable
define internal ptr @Vec_StrArray(ptr noundef %0) #2 {
  %2 = alloca ptr, align 8
  store ptr %0, ptr %2, align 8, !tbaa !14
  %3 = load ptr, ptr %2, align 8, !tbaa !14
  %4 = getelementptr inbounds nuw %struct.Vec_Str_t_, ptr %3, i32 0, i32 2
  %5 = load ptr, ptr %4, align 8, !tbaa !26
  ret ptr %5
}

; Function Attrs: inlinehint nounwind uwtable
define internal void @Vec_StrGrow(ptr noundef %0, i32 noundef %1) #2 {
  %3 = alloca ptr, align 8
  %4 = alloca i32, align 4
  store ptr %0, ptr %3, align 8, !tbaa !14
  store i32 %1, ptr %4, align 4, !tbaa !16
  %5 = load ptr, ptr %3, align 8, !tbaa !14
  %6 = getelementptr inbounds nuw %struct.Vec_Str_t_, ptr %5, i32 0, i32 0
  %7 = load i32, ptr %6, align 8, !tbaa !24
  %8 = load i32, ptr %4, align 4, !tbaa !16
  %9 = icmp sge i32 %7, %8
  br i1 %9, label %10, label %11

10:                                               ; preds = %2
  br label %36

11:                                               ; preds = %2
  %12 = load ptr, ptr %3, align 8, !tbaa !14
  %13 = getelementptr inbounds nuw %struct.Vec_Str_t_, ptr %12, i32 0, i32 2
  %14 = load ptr, ptr %13, align 8, !tbaa !26
  %15 = icmp ne ptr %14, null
  br i1 %15, label %16, label %24

16:                                               ; preds = %11
  %17 = load ptr, ptr %3, align 8, !tbaa !14
  %18 = getelementptr inbounds nuw %struct.Vec_Str_t_, ptr %17, i32 0, i32 2
  %19 = load ptr, ptr %18, align 8, !tbaa !26
  %20 = load i32, ptr %4, align 4, !tbaa !16
  %21 = sext i32 %20 to i64
  %22 = mul i64 1, %21
  %23 = call ptr @realloc(ptr noundef %19, i64 noundef %22) #11
  br label %29

24:                                               ; preds = %11
  %25 = load i32, ptr %4, align 4, !tbaa !16
  %26 = sext i32 %25 to i64
  %27 = mul i64 1, %26
  %28 = call noalias ptr @malloc(i64 noundef %27) #12
  br label %29

29:                                               ; preds = %24, %16
  %30 = phi ptr [ %23, %16 ], [ %28, %24 ]
  %31 = load ptr, ptr %3, align 8, !tbaa !14
  %32 = getelementptr inbounds nuw %struct.Vec_Str_t_, ptr %31, i32 0, i32 2
  store ptr %30, ptr %32, align 8, !tbaa !26
  %33 = load i32, ptr %4, align 4, !tbaa !16
  %34 = load ptr, ptr %3, align 8, !tbaa !14
  %35 = getelementptr inbounds nuw %struct.Vec_Str_t_, ptr %34, i32 0, i32 0
  store i32 %33, ptr %35, align 8, !tbaa !24
  br label %36

36:                                               ; preds = %29, %10
  ret void
}

; Function Attrs: inlinehint nounwind uwtable
define internal i32 @Vec_IntSize(ptr noundef %0) #2 {
  %2 = alloca ptr, align 8
  store ptr %0, ptr %2, align 8, !tbaa !12
  %3 = load ptr, ptr %2, align 8, !tbaa !12
  %4 = getelementptr inbounds nuw %struct.Vec_Int_t_, ptr %3, i32 0, i32 1
  %5 = load i32, ptr %4, align 4, !tbaa !21
  ret i32 %5
}

; Function Attrs: nounwind uwtable
define i32 @Gia_ManRebuildIsop(ptr noundef %0, ptr noundef %1, ptr noundef %2, ptr noundef %3, ptr noundef %4, ptr noundef %5) #0 {
  %7 = alloca i32, align 4
  %8 = alloca ptr, align 8
  %9 = alloca ptr, align 8
  %10 = alloca ptr, align 8
  %11 = alloca ptr, align 8
  %12 = alloca ptr, align 8
  %13 = alloca ptr, align 8
  %14 = alloca ptr, align 8
  %15 = alloca ptr, align 8
  %16 = alloca ptr, align 8
  %17 = alloca ptr, align 8
  %18 = alloca ptr, align 8
  %19 = alloca i32, align 4
  %20 = alloca i32, align 4
  %21 = alloca i32, align 4
  %22 = alloca i32, align 4
  %23 = alloca i32, align 4
  %24 = alloca i32, align 4
  store ptr %0, ptr %8, align 8, !tbaa !3
  store ptr %1, ptr %9, align 8, !tbaa !8
  store ptr %2, ptr %10, align 8, !tbaa !10
  store ptr %3, ptr %11, align 8, !tbaa !12
  store ptr %4, ptr %12, align 8, !tbaa !14
  store ptr %5, ptr %13, align 8, !tbaa !14
  call void @llvm.lifetime.start.p0(i64 8, ptr %14) #10
  call void @llvm.lifetime.start.p0(i64 8, ptr %15) #10
  call void @llvm.lifetime.start.p0(i64 8, ptr %16) #10
  call void @llvm.lifetime.start.p0(i64 8, ptr %17) #10
  call void @llvm.lifetime.start.p0(i64 8, ptr %18) #10
  call void @llvm.lifetime.start.p0(i64 4, ptr %19) #10
  %25 = load ptr, ptr %11, align 8, !tbaa !12
  %26 = call i32 @Vec_IntSize(ptr noundef %25)
  store i32 %26, ptr %19, align 4, !tbaa !16
  call void @llvm.lifetime.start.p0(i64 4, ptr %20) #10
  call void @llvm.lifetime.start.p0(i64 4, ptr %21) #10
  call void @llvm.lifetime.start.p0(i64 4, ptr %22) #10
  call void @llvm.lifetime.start.p0(i64 4, ptr %23) #10
  %27 = load ptr, ptr %8, align 8, !tbaa !3
  %28 = load ptr, ptr %9, align 8, !tbaa !8
  %29 = ptrtoint ptr %28 to i64
  %30 = xor i64 %29, 1
  %31 = inttoptr i64 %30 to ptr
  %32 = load ptr, ptr %9, align 8, !tbaa !8
  %33 = ptrtoint ptr %32 to i64
  %34 = xor i64 %33, 1
  %35 = inttoptr i64 %34 to ptr
  %36 = call ptr @Cudd_zddIsop(ptr noundef %27, ptr noundef %31, ptr noundef %35, ptr noundef %17)
  store ptr %36, ptr %15, align 8, !tbaa !8
  %37 = load ptr, ptr %17, align 8, !tbaa !8
  call void @Cudd_Ref(ptr noundef %37)
  %38 = load ptr, ptr %15, align 8, !tbaa !8
  call void @Cudd_Ref(ptr noundef %38)
  %39 = load ptr, ptr %8, align 8, !tbaa !3
  %40 = load ptr, ptr %15, align 8, !tbaa !8
  call void @Cudd_RecursiveDeref(ptr noundef %39, ptr noundef %40)
  %41 = load ptr, ptr %8, align 8, !tbaa !3
  %42 = load ptr, ptr %17, align 8, !tbaa !8
  %43 = call i32 @Abc_CountZddCubes(ptr noundef %41, ptr noundef %42)
  store i32 %43, ptr %22, align 4, !tbaa !16
  %44 = load ptr, ptr %8, align 8, !tbaa !3
  %45 = load ptr, ptr %9, align 8, !tbaa !8
  %46 = load ptr, ptr %9, align 8, !tbaa !8
  %47 = call ptr @Cudd_zddIsop(ptr noundef %44, ptr noundef %45, ptr noundef %46, ptr noundef %18)
  store ptr %47, ptr %15, align 8, !tbaa !8
  %48 = load ptr, ptr %18, align 8, !tbaa !8
  call void @Cudd_Ref(ptr noundef %48)
  %49 = load ptr, ptr %15, align 8, !tbaa !8
  call void @Cudd_Ref(ptr noundef %49)
  %50 = load ptr, ptr %8, align 8, !tbaa !3
  %51 = load ptr, ptr %15, align 8, !tbaa !8
  call void @Cudd_RecursiveDeref(ptr noundef %50, ptr noundef %51)
  %52 = load ptr, ptr %8, align 8, !tbaa !3
  %53 = load ptr, ptr %18, align 8, !tbaa !8
  %54 = call i32 @Abc_CountZddCubes(ptr noundef %52, ptr noundef %53)
  store i32 %54, ptr %23, align 4, !tbaa !16
  %55 = load i32, ptr %23, align 4, !tbaa !16
  %56 = load i32, ptr %22, align 4, !tbaa !16
  %57 = icmp sle i32 %55, %56
  br i1 %57, label %58, label %63

58:                                               ; preds = %6
  %59 = load i32, ptr %23, align 4, !tbaa !16
  store i32 %59, ptr %21, align 4, !tbaa !16
  %60 = load ptr, ptr %18, align 8, !tbaa !8
  store ptr %60, ptr %16, align 8, !tbaa !8
  %61 = load ptr, ptr %8, align 8, !tbaa !3
  %62 = load ptr, ptr %17, align 8, !tbaa !8
  call void @Cudd_RecursiveDerefZdd(ptr noundef %61, ptr noundef %62)
  store i32 1, ptr %20, align 4, !tbaa !16
  br label %68

63:                                               ; preds = %6
  %64 = load i32, ptr %22, align 4, !tbaa !16
  store i32 %64, ptr %21, align 4, !tbaa !16
  %65 = load ptr, ptr %17, align 8, !tbaa !8
  store ptr %65, ptr %16, align 8, !tbaa !8
  %66 = load ptr, ptr %8, align 8, !tbaa !3
  %67 = load ptr, ptr %18, align 8, !tbaa !8
  call void @Cudd_RecursiveDerefZdd(ptr noundef %66, ptr noundef %67)
  store i32 0, ptr %20, align 4, !tbaa !16
  br label %68

68:                                               ; preds = %63, %58
  %69 = load i32, ptr %21, align 4, !tbaa !16
  %70 = icmp sgt i32 %69, 1000
  br i1 %70, label %71, label %74

71:                                               ; preds = %68
  %72 = load ptr, ptr %8, align 8, !tbaa !3
  %73 = load ptr, ptr %16, align 8, !tbaa !8
  call void @Cudd_RecursiveDerefZdd(ptr noundef %72, ptr noundef %73)
  store i32 -1, ptr %7, align 4
  store i32 1, ptr %24, align 4
  br label %106

74:                                               ; preds = %68
  %75 = load ptr, ptr %12, align 8, !tbaa !14
  %76 = load i32, ptr %19, align 4, !tbaa !16
  %77 = add nsw i32 %76, 3
  %78 = load i32, ptr %21, align 4, !tbaa !16
  %79 = mul nsw i32 %77, %78
  %80 = add nsw i32 %79, 1
  call void @Vec_StrGrow(ptr noundef %75, i32 noundef %80)
  %81 = load ptr, ptr %12, align 8, !tbaa !14
  %82 = call ptr @Vec_StrArray(ptr noundef %81)
  store ptr %82, ptr %14, align 8, !tbaa !18
  %83 = load ptr, ptr %14, align 8, !tbaa !18
  %84 = load i32, ptr %19, align 4, !tbaa !16
  %85 = add nsw i32 %84, 3
  %86 = load i32, ptr %21, align 4, !tbaa !16
  %87 = mul nsw i32 %85, %86
  %88 = sext i32 %87 to i64
  %89 = getelementptr inbounds i8, ptr %83, i64 %88
  store i8 0, ptr %89, align 1, !tbaa !20
  %90 = load ptr, ptr %13, align 8, !tbaa !14
  %91 = load i32, ptr %19, align 4, !tbaa !16
  call void @Vec_StrFill(ptr noundef %90, i32 noundef %91, i8 noundef signext 45)
  %92 = load ptr, ptr %13, align 8, !tbaa !14
  call void @Vec_StrPush(ptr noundef %92, i8 noundef signext 0)
  %93 = load ptr, ptr %8, align 8, !tbaa !3
  %94 = load ptr, ptr %16, align 8, !tbaa !8
  %95 = load ptr, ptr %14, align 8, !tbaa !18
  %96 = load i32, ptr %19, align 4, !tbaa !16
  %97 = load ptr, ptr %13, align 8, !tbaa !14
  %98 = load i32, ptr %20, align 4, !tbaa !16
  %99 = call i32 @Abc_ConvertZddToSop(ptr noundef %93, ptr noundef %94, ptr noundef %95, i32 noundef %96, ptr noundef %97, i32 noundef %98)
  %100 = load ptr, ptr %8, align 8, !tbaa !3
  %101 = load ptr, ptr %16, align 8, !tbaa !8
  call void @Cudd_RecursiveDerefZdd(ptr noundef %100, ptr noundef %101)
  %102 = load ptr, ptr %10, align 8, !tbaa !10
  %103 = load ptr, ptr %14, align 8, !tbaa !18
  %104 = load ptr, ptr %11, align 8, !tbaa !12
  %105 = call i32 @Gia_ManFactorNode(ptr noundef %102, ptr noundef %103, ptr noundef %104)
  store i32 %105, ptr %7, align 4
  store i32 1, ptr %24, align 4
  br label %106

106:                                              ; preds = %74, %71
  call void @llvm.lifetime.end.p0(i64 4, ptr %23) #10
  call void @llvm.lifetime.end.p0(i64 4, ptr %22) #10
  call void @llvm.lifetime.end.p0(i64 4, ptr %21) #10
  call void @llvm.lifetime.end.p0(i64 4, ptr %20) #10
  call void @llvm.lifetime.end.p0(i64 4, ptr %19) #10
  call void @llvm.lifetime.end.p0(i64 8, ptr %18) #10
  call void @llvm.lifetime.end.p0(i64 8, ptr %17) #10
  call void @llvm.lifetime.end.p0(i64 8, ptr %16) #10
  call void @llvm.lifetime.end.p0(i64 8, ptr %15) #10
  call void @llvm.lifetime.end.p0(i64 8, ptr %14) #10
  %107 = load i32, ptr %7, align 4
  ret i32 %107
}