; Function Attrs: nounwind uwtable
define i32 @Gia_ManRebuildIsop(ptr noundef %0, ptr noundef %1, ptr noundef %2, ptr noundef %3, ptr noundef captures(none) %4, ptr noundef %5) local_unnamed_addr #0 {
  %7 = alloca ptr, align 8
  %8 = alloca ptr, align 8
  call void @llvm.lifetime.start.p0(i64 8, ptr nonnull %7) #14
  call void @llvm.lifetime.start.p0(i64 8, ptr nonnull %8) #14
  %9 = getelementptr i8, ptr %3, i64 4
  %.val = load i32, ptr %9, align 4, !tbaa !3
  %10 = ptrtoint ptr %1 to i64
  %11 = xor i64 %10, 1
  %12 = inttoptr i64 %11 to ptr
  %13 = call ptr @Cudd_zddIsop(ptr noundef %0, ptr noundef %12, ptr noundef %12, ptr noundef nonnull %7) #14
  %14 = load ptr, ptr %7, align 8, !tbaa !10
  call void @Cudd_Ref(ptr noundef %14) #14
  call void @Cudd_Ref(ptr noundef %13) #14
  call void @Cudd_RecursiveDeref(ptr noundef %0, ptr noundef %13) #14
  %15 = load ptr, ptr %7, align 8, !tbaa !10
  %16 = call i32 @Abc_CountZddCubes(ptr noundef %0, ptr noundef %15) #14
  %17 = call ptr @Cudd_zddIsop(ptr noundef %0, ptr noundef %1, ptr noundef %1, ptr noundef nonnull %8) #14
  %18 = load ptr, ptr %8, align 8, !tbaa !10
  call void @Cudd_Ref(ptr noundef %18) #14
  call void @Cudd_Ref(ptr noundef %17) #14
  call void @Cudd_RecursiveDeref(ptr noundef %0, ptr noundef %17) #14
  %19 = load ptr, ptr %8, align 8, !tbaa !10
  %20 = call i32 @Abc_CountZddCubes(ptr noundef %0, ptr noundef %19) #14
  %.not = icmp sle i32 %20, %16
  %.56 = zext i1 %.not to i32
  %.57 = call i32 @llvm.smin.i32(i32 %20, i32 %16)
  %.val58 = load ptr, ptr %8, align 8
  %.val59 = load ptr, ptr %7, align 8
  %21 = select i1 %.not, ptr %.val58, ptr %.val59
  %22 = select i1 %.not, ptr %.val59, ptr %.val58
  call void @Cudd_RecursiveDerefZdd(ptr noundef %0, ptr noundef %22) #14
  %23 = icmp sgt i32 %.57, 1000
  br i1 %23, label %24, label %25

24:                                               ; preds = %6
  call void @Cudd_RecursiveDerefZdd(ptr noundef %0, ptr noundef %21) #14
  br label %92

25:                                               ; preds = %6
  %26 = add nsw i32 %.val, 3
  %27 = mul nsw i32 %.57, %26
  %28 = add nsw i32 %27, 1
  %29 = load i32, ptr %4, align 8, !tbaa !12
  %.not.i.not = icmp sgt i32 %29, %27
  %.phi.trans.insert = getelementptr i8, ptr %4, i64 8
  %.val50.pre = load ptr, ptr %.phi.trans.insert, align 8, !tbaa !15
  br i1 %.not.i.not, label %Vec_StrGrow.exit, label %30

30:                                               ; preds = %25
  %.not9.i = icmp eq ptr %.val50.pre, null
  %31 = sext i32 %28 to i64
  br i1 %.not9.i, label %34, label %32

32:                                               ; preds = %30
  %33 = call ptr @realloc(ptr noundef nonnull %.val50.pre, i64 noundef %31) #15
  br label %36

34:                                               ; preds = %30
  %35 = call noalias ptr @malloc(i64 noundef %31) #16
  br label %36

36:                                               ; preds = %34, %32
  %37 = phi ptr [ %33, %32 ], [ %35, %34 ]
  store ptr %37, ptr %.phi.trans.insert, align 8, !tbaa !15
  store i32 %28, ptr %4, align 8, !tbaa !12
  br label %Vec_StrGrow.exit

Vec_StrGrow.exit:                                 ; preds = %25, %36
  %.val50 = phi ptr [ %37, %36 ], [ %.val50.pre, %25 ]
  %38 = sext i32 %27 to i64
  %39 = getelementptr inbounds i8, ptr %.val50, i64 %38
  store i8 0, ptr %39, align 1, !tbaa !16
  %40 = load i32, ptr %5, align 8, !tbaa !12
  %.not.i.i = icmp slt i32 %40, %.val
  br i1 %.not.i.i, label %41, label %Vec_StrGrow.exit.i

41:                                               ; preds = %Vec_StrGrow.exit
  %42 = getelementptr inbounds nuw i8, ptr %5, i64 8
  %43 = load ptr, ptr %42, align 8, !tbaa !15
  %.not9.i.i = icmp eq ptr %43, null
  %44 = sext i32 %.val to i64
  br i1 %.not9.i.i, label %47, label %45

45:                                               ; preds = %41
  %46 = call ptr @realloc(ptr noundef nonnull %43, i64 noundef %44) #15
  br label %49

47:                                               ; preds = %41
  %48 = call noalias ptr @malloc(i64 noundef %44) #16
  br label %49

49:                                               ; preds = %47, %45
  %50 = phi ptr [ %46, %45 ], [ %48, %47 ]
  store ptr %50, ptr %42, align 8, !tbaa !15
  store i32 %.val, ptr %5, align 8, !tbaa !12
  br label %Vec_StrGrow.exit.i

Vec_StrGrow.exit.i:                               ; preds = %49, %Vec_StrGrow.exit
  %51 = phi i32 [ %.val, %49 ], [ %40, %Vec_StrGrow.exit ]
  %52 = getelementptr inbounds nuw i8, ptr %5, i64 4
  store i32 %.val, ptr %52, align 4, !tbaa !17
  %53 = icmp sgt i32 %.val, 0
  br i1 %53, label %.lr.ph.i, label %Vec_StrFill.exit

.lr.ph.i:                                         ; preds = %Vec_StrGrow.exit.i
  %54 = getelementptr inbounds nuw i8, ptr %5, i64 8
  br label %55

55:                                               ; preds = %55, %.lr.ph.i
  %indvars.iv.i = phi i64 [ 0, %.lr.ph.i ], [ %indvars.iv.next.i, %55 ]
  %56 = load ptr, ptr %54, align 8, !tbaa !15
  %57 = getelementptr inbounds nuw i8, ptr %56, i64 %indvars.iv.i
  store i8 45, ptr %57, align 1, !tbaa !16
  %indvars.iv.next.i = add nuw nsw i64 %indvars.iv.i, 1
  %58 = load i32, ptr %52, align 4, !tbaa !17
  %59 = sext i32 %58 to i64
  %60 = icmp slt i64 %indvars.iv.next.i, %59
  br i1 %60, label %55, label %Vec_StrFill.exit.loopexit, !llvm.loop !18

Vec_StrFill.exit.loopexit:                        ; preds = %55
  %.pre = load i32, ptr %5, align 8, !tbaa !12
  br label %Vec_StrFill.exit

Vec_StrFill.exit:                                 ; preds = %Vec_StrFill.exit.loopexit, %Vec_StrGrow.exit.i
  %61 = phi i32 [ %51, %Vec_StrGrow.exit.i ], [ %.pre, %Vec_StrFill.exit.loopexit ]
  %62 = phi i32 [ %.val, %Vec_StrGrow.exit.i ], [ %58, %Vec_StrFill.exit.loopexit ]
  %63 = icmp eq i32 %62, %61
  br i1 %63, label %64, label %.Vec_StrGrow.exit10_crit_edge.i

.Vec_StrGrow.exit10_crit_edge.i:                  ; preds = %Vec_StrFill.exit
  %.phi.trans.insert.i = getelementptr inbounds nuw i8, ptr %5, i64 8
  %.pre.i = load ptr, ptr %.phi.trans.insert.i, align 8, !tbaa !15
  br label %Vec_StrPush.exit

64:                                               ; preds = %Vec_StrFill.exit
  %65 = icmp slt i32 %61, 16
  br i1 %65, label %66, label %74

66:                                               ; preds = %64
  %67 = getelementptr inbounds nuw i8, ptr %5, i64 8
  %68 = load ptr, ptr %67, align 8, !tbaa !15
  %.not9.i.i51 = icmp eq ptr %68, null
  br i1 %.not9.i.i51, label %71, label %69

69:                                               ; preds = %66
  %70 = call dereferenceable_or_null(16) ptr @realloc(ptr noundef nonnull %68, i64 noundef 16) #15
  br label %Vec_StrGrow.exit.i52

71:                                               ; preds = %66
  %72 = call noalias dereferenceable_or_null(16) ptr @malloc(i64 noundef 16) #16
  br label %Vec_StrGrow.exit.i52

Vec_StrGrow.exit.i52:                             ; preds = %71, %69
  %73 = phi ptr [ %70, %69 ], [ %72, %71 ]
  store ptr %73, ptr %67, align 8, !tbaa !15
  store i32 16, ptr %5, align 8, !tbaa !12
  br label %Vec_StrPush.exit

74:                                               ; preds = %64
  %75 = shl nuw nsw i32 %61, 1
  %76 = getelementptr inbounds nuw i8, ptr %5, i64 8
  %77 = load ptr, ptr %76, align 8, !tbaa !15
  %.not9.i9.i = icmp eq ptr %77, null
  %78 = zext nneg i32 %75 to i64
  br i1 %.not9.i9.i, label %81, label %79

79:                                               ; preds = %74
  %80 = call ptr @realloc(ptr noundef nonnull %77, i64 noundef %78) #15
  br label %83

81:                                               ; preds = %74
  %82 = call noalias ptr @malloc(i64 noundef %78) #16
  br label %83

83:                                               ; preds = %81, %79
  %84 = phi ptr [ %80, %79 ], [ %82, %81 ]
  store ptr %84, ptr %76, align 8, !tbaa !15
  store i32 %75, ptr %5, align 8, !tbaa !12
  br label %Vec_StrPush.exit

Vec_StrPush.exit:                                 ; preds = %.Vec_StrGrow.exit10_crit_edge.i, %Vec_StrGrow.exit.i52, %83
  %85 = phi ptr [ %.pre.i, %.Vec_StrGrow.exit10_crit_edge.i ], [ %84, %83 ], [ %73, %Vec_StrGrow.exit.i52 ]
  %86 = load i32, ptr %52, align 4, !tbaa !17
  %87 = add nsw i32 %86, 1
  store i32 %87, ptr %52, align 4, !tbaa !17
  %88 = sext i32 %86 to i64
  %89 = getelementptr inbounds i8, ptr %85, i64 %88
  store i8 0, ptr %89, align 1, !tbaa !16
  %90 = call i32 @Abc_ConvertZddToSop(ptr noundef %0, ptr noundef %21, ptr noundef %.val50, i32 noundef %.val, ptr noundef nonnull %5, i32 noundef %.56) #14
  call void @Cudd_RecursiveDerefZdd(ptr noundef %0, ptr noundef %21) #14
  %91 = call i32 @Gia_ManFactorNode(ptr noundef %2, ptr noundef %.val50, ptr noundef %3) #14
  br label %92

92:                                               ; preds = %Vec_StrPush.exit, %24
  %.0 = phi i32 [ -1, %24 ], [ %91, %Vec_StrPush.exit ]
  call void @llvm.lifetime.end.p0(i64 8, ptr nonnull %8) #14
  call void @llvm.lifetime.end.p0(i64 8, ptr nonnull %7) #14
  ret i32 %.0
}